target datalayout = "e-m:e-p270:32:32-p271:32:32-p272:64:64-i64:64-i128:128-f80:128-n8:16:32:64-S128"
target triple = "x86_64-pc-linux-gnu"

%struct.archive_string = type { ptr, i64, i64 }
%struct.archive_mstring = type { %struct.archive_string, %struct.archive_string, %struct.archive_wstring, %struct.archive_string, i32 }
%struct.archive_wstring = type { ptr, i64, i64 }
%struct.match_file = type { %struct.archive_rb_node, ptr, %struct.archive_mstring, i32, i64, i64, i64, i64 }
%struct.archive_rb_node = type { [2 x ptr], i64 }

; Function Attrs: nounwind uwtable
define internal i32 @cmp_node_mbs(ptr noundef %0, ptr noundef %1) #0 {
  %3 = alloca i32, align 4
  %4 = alloca ptr, align 8
  %5 = alloca ptr, align 8
  %6 = alloca ptr, align 8
  %7 = alloca ptr, align 8
  %8 = alloca ptr, align 8
  %9 = alloca ptr, align 8
  %10 = alloca i32, align 4
  store ptr %0, ptr %4, align 8, !tbaa !118
  store ptr %1, ptr %5, align 8, !tbaa !118
  call void @llvm.lifetime.start.p0(i64 8, ptr %6) #9
  %11 = load ptr, ptr %4, align 8, !tbaa !118
  %12 = ptrtoint ptr %11 to i64
  %13 = inttoptr i64 %12 to ptr
  store ptr %13, ptr %6, align 8, !tbaa !54
  call void @llvm.lifetime.start.p0(i64 8, ptr %7) #9
  %14 = load ptr, ptr %5, align 8, !tbaa !118
  %15 = ptrtoint ptr %14 to i64
  %16 = inttoptr i64 %15 to ptr
  store ptr %16, ptr %7, align 8, !tbaa !54
  call void @llvm.lifetime.start.p0(i64 8, ptr %8) #9
  call void @llvm.lifetime.start.p0(i64 8, ptr %9) #9
  %17 = load ptr, ptr %6, align 8, !tbaa !54
  %18 = getelementptr inbounds nuw %struct.match_file, ptr %17, i32 0, i32 2
  %19 = call i32 @archive_mstring_get_mbs(ptr noundef null, ptr noundef %18, ptr noundef %8)
  %20 = load ptr, ptr %7, align 8, !tbaa !54
  %21 = getelementptr inbounds nuw %struct.match_file, ptr %20, i32 0, i32 2
  %22 = call i32 @archive_mstring_get_mbs(ptr noundef null, ptr noundef %21, ptr noundef %9)
  %23 = load ptr, ptr %8, align 8, !tbaa !94
  %24 = icmp eq ptr %23, null
  br i1 %24, label %25, label %26

25:                                               ; preds = %2
  store i32 1, ptr %3, align 4
  store i32 1, ptr %10, align 4
  br label %34

26:                                               ; preds = %2
  %27 = load ptr, ptr %9, align 8, !tbaa !94
  %28 = icmp eq ptr %27, null
  br i1 %28, label %29, label %30

29:                                               ; preds = %26
  store i32 -1, ptr %3, align 4
  store i32 1, ptr %10, align 4
  br label %34

30:                                               ; preds = %26
  %31 = load ptr, ptr %8, align 8, !tbaa !94
  %32 = load ptr, ptr %9, align 8, !tbaa !94
  %33 = call i32 @strcmp(ptr noundef %31, ptr noundef %32) #11
  store i32 %33, ptr %3, align 4
  store i32 1, ptr %10, align 4
  br label %34

34:                                               ; preds = %30, %29, %25
  call void @llvm.lifetime.end.p0(i64 8, ptr %9) #9
  call void @llvm.lifetime.end.p0(i64 8, ptr %8) #9
  call void @llvm.lifetime.end.p0(i64 8, ptr %7) #9
  call void @llvm.lifetime.end.p0(i64 8, ptr %6) #9
  %35 = load i32, ptr %3, align 4
  ret i32 %35
}