; Function Attrs: nounwind uwtable
define internal i32 @cmp_node_mbs(ptr noundef %0, ptr noundef %1) #0 {
  %3 = alloca ptr, align 8
  %4 = alloca ptr, align 8
  call void @llvm.lifetime.start.p0(i64 8, ptr nonnull %3) #14
  call void @llvm.lifetime.start.p0(i64 8, ptr nonnull %4) #14
  %5 = getelementptr inbounds nuw i8, ptr %0, i64 32
  %6 = call i32 @archive_mstring_get_mbs(ptr noundef null, ptr noundef nonnull %5, ptr noundef nonnull %3) #14
  %7 = getelementptr inbounds nuw i8, ptr %1, i64 32
  %8 = call i32 @archive_mstring_get_mbs(ptr noundef null, ptr noundef nonnull %7, ptr noundef nonnull %4) #14
  %9 = load ptr, ptr %3, align 8, !tbaa !52
  %10 = icmp eq ptr %9, null
  br i1 %10, label %16, label %11

11:                                               ; preds = %2
  %12 = load ptr, ptr %4, align 8, !tbaa !52
  %13 = icmp eq ptr %12, null
  br i1 %13, label %16, label %14

14:                                               ; preds = %11
  %15 = call i32 @strcmp(ptr noundef nonnull dereferenceable(1) %9, ptr noundef nonnull dereferenceable(1) %12) #16
  br label %16

16:                                               ; preds = %11, %2, %14
  %.0 = phi i32 [ %15, %14 ], [ 1, %2 ], [ -1, %11 ]
  call void @llvm.lifetime.end.p0(i64 8, ptr nonnull %4) #14
  call void @llvm.lifetime.end.p0(i64 8, ptr nonnull %3) #14
  ret i32 %.0
}